; Function Attrs: mustprogress uwtable
define void @_ZN2cv3dnn14dnn4_v202412235Layer3runERKSt6vectorINS_3MatESaIS4_EERS6_S9_(ptr noundef nonnull align 8 dereferenceable(100) %0, ptr noundef nonnull align 8 dereferenceable(24) %1, ptr noundef nonnull align 8 dereferenceable(24) %2, ptr noundef nonnull align 8 dereferenceable(24) %3) local_unnamed_addr #3 align 2 personality ptr @__gxx_personality_v0 {
  %5 = alloca %"class.cv::utils::trace::details::Region", align 8
  %6 = alloca %"class.cv::_InputArray", align 8
  %7 = alloca %"class.cv::_OutputArray", align 8
  %8 = alloca %"class.cv::utils::trace::details::Region", align 8
  %9 = alloca %"class.cv::_InputArray", align 8
  %10 = alloca %"class.cv::_OutputArray", align 8
  %11 = alloca %"class.cv::_OutputArray", align 8
  call void @llvm.lifetime.start.p0(i64 16, ptr nonnull %8) #23
  call void @_ZN2cv5utils5trace7details6RegionC1ERKNS3_21LocationStaticStorageE(ptr noundef nonnull align 8 dereferenceable(12) %8, ptr noundef nonnull align 8 dereferenceable(32) @_ZZN2cv3dnn14dnn4_v202412235Layer3runERKSt6vectorINS_3MatESaIS4_EERS6_S9_E25__cv_trace_location_fn236)
  call void @llvm.lifetime.start.p0(i64 16, ptr nonnull %5) #23
  invoke void @_ZN2cv5utils5trace7details6RegionC1ERKNS3_21LocationStaticStorageE(ptr noundef nonnull align 8 dereferenceable(12) %5, ptr noundef nonnull align 8 dereferenceable(32) @_ZZN2cv3dnn14dnn4_v202412235Layer8finalizeERKSt6vectorINS_3MatESaIS4_EERS6_E25__cv_trace_location_fn130)
          to label %.noexc unwind label %47

.noexc:                                           ; preds = %4
  call void @llvm.lifetime.start.p0(i64 24, ptr nonnull %6) #23
  %12 = getelementptr inbounds nuw i8, ptr %6, i64 16
  store i32 0, ptr %12, align 8, !tbaa !68
  %13 = getelementptr inbounds nuw i8, ptr %6, i64 20
  store i32 0, ptr %13, align 4, !tbaa !70
  store i32 17104896, ptr %6, align 8, !tbaa !71
  %14 = getelementptr inbounds nuw i8, ptr %6, i64 8
  store ptr %1, ptr %14, align 8, !tbaa !73
  call void @llvm.lifetime.start.p0(i64 24, ptr nonnull %7) #23
  %15 = getelementptr inbounds nuw i8, ptr %7, i64 8
  %16 = getelementptr inbounds nuw i8, ptr %7, i64 16
  store i64 0, ptr %16, align 8
  store i32 33882112, ptr %7, align 8, !tbaa !71
  store ptr %2, ptr %15, align 8, !tbaa !73
  %17 = load ptr, ptr %0, align 8, !tbaa !3
  %18 = getelementptr inbounds nuw i8, ptr %17, i64 72
  %19 = load ptr, ptr %18, align 8
  invoke void %19(ptr noundef nonnull align 8 dereferenceable(100) %0, ptr noundef nonnull align 8 dereferenceable(24) %6, ptr noundef nonnull align 8 dereferenceable(24) %7)
          to label %20 unwind label %27

20:                                               ; preds = %.noexc
  call void @llvm.lifetime.end.p0(i64 24, ptr nonnull %7) #23
  call void @llvm.lifetime.end.p0(i64 24, ptr nonnull %6) #23
  %21 = getelementptr inbounds nuw i8, ptr %5, i64 8
  %22 = load i32, ptr %21, align 8, !tbaa !74
  %.not.i.i = icmp eq i32 %22, 0
  br i1 %.not.i.i, label %29, label %23

23:                                               ; preds = %20
  invoke void @_ZN2cv5utils5trace7details6Region7destroyEv(ptr noundef nonnull align 8 dereferenceable(12) %5)
          to label %29 unwind label %24

24:                                               ; preds = %23
  %25 = landingpad { ptr, i32 }
          catch ptr null
  %26 = extractvalue { ptr, i32 } %25, 0
  call void @__clang_call_terminate(ptr %26) #27
  unreachable

27:                                               ; preds = %.noexc
  %28 = landingpad { ptr, i32 }
          cleanup
  call void @llvm.lifetime.end.p0(i64 24, ptr nonnull %7) #23
  call void @llvm.lifetime.end.p0(i64 24, ptr nonnull %6) #23
  call void @_ZN2cv5utils5trace7details6RegionD2Ev(ptr noundef nonnull align 8 dereferenceable(12) %5) #23
  call void @llvm.lifetime.end.p0(i64 16, ptr nonnull %5) #23
  br label %.body

29:                                               ; preds = %20, %23
  call void @llvm.lifetime.end.p0(i64 16, ptr nonnull %5) #23
  call void @llvm.lifetime.start.p0(i64 24, ptr nonnull %9) #23
  %30 = getelementptr inbounds nuw i8, ptr %9, i64 16
  store i32 0, ptr %30, align 8, !tbaa !68
  %31 = getelementptr inbounds nuw i8, ptr %9, i64 20
  store i32 0, ptr %31, align 4, !tbaa !70
  store i32 17104896, ptr %9, align 8, !tbaa !71
  %32 = getelementptr inbounds nuw i8, ptr %9, i64 8
  store ptr %1, ptr %32, align 8, !tbaa !73
  call void @llvm.lifetime.start.p0(i64 24, ptr nonnull %10) #23
  %33 = getelementptr inbounds nuw i8, ptr %10, i64 8
  %34 = getelementptr inbounds nuw i8, ptr %10, i64 16
  store i64 0, ptr %34, align 8
  store i32 33882112, ptr %10, align 8, !tbaa !71
  store ptr %2, ptr %33, align 8, !tbaa !73
  call void @llvm.lifetime.start.p0(i64 24, ptr nonnull %11) #23
  %35 = getelementptr inbounds nuw i8, ptr %11, i64 8
  %36 = getelementptr inbounds nuw i8, ptr %11, i64 16
  store i64 0, ptr %36, align 8
  store i32 33882112, ptr %11, align 8, !tbaa !71
  store ptr %3, ptr %35, align 8, !tbaa !73
  %37 = load ptr, ptr %0, align 8, !tbaa !3
  %38 = getelementptr inbounds nuw i8, ptr %37, i64 88
  %39 = load ptr, ptr %38, align 8
  invoke void %39(ptr noundef nonnull align 8 dereferenceable(100) %0, ptr noundef nonnull align 8 dereferenceable(24) %9, ptr noundef nonnull align 8 dereferenceable(24) %10, ptr noundef nonnull align 8 dereferenceable(24) %11)
          to label %40 unwind label %49

40:                                               ; preds = %29
  call void @llvm.lifetime.end.p0(i64 24, ptr nonnull %11) #23
  call void @llvm.lifetime.end.p0(i64 24, ptr nonnull %10) #23
  call void @llvm.lifetime.end.p0(i64 24, ptr nonnull %9) #23
  %41 = getelementptr inbounds nuw i8, ptr %8, i64 8
  %42 = load i32, ptr %41, align 8, !tbaa !74
  %.not.i = icmp eq i32 %42, 0
  br i1 %.not.i, label %_ZN2cv5utils5trace7details6RegionD2Ev.exit, label %43

43:                                               ; preds = %40
  invoke void @_ZN2cv5utils5trace7details6Region7destroyEv(ptr noundef nonnull align 8 dereferenceable(12) %8)
          to label %_ZN2cv5utils5trace7details6RegionD2Ev.exit unwind label %44

44:                                               ; preds = %43
  %45 = landingpad { ptr, i32 }
          catch ptr null
  %46 = extractvalue { ptr, i32 } %45, 0
  call void @__clang_call_terminate(ptr %46) #27
  unreachable

_ZN2cv5utils5trace7details6RegionD2Ev.exit:       ; preds = %40, %43
  call void @llvm.lifetime.end.p0(i64 16, ptr nonnull %8) #23
  ret void

47:                                               ; preds = %4
  %48 = landingpad { ptr, i32 }
          cleanup
  br label %.body

49:                                               ; preds = %29
  %50 = landingpad { ptr, i32 }
          cleanup
  call void @llvm.lifetime.end.p0(i64 24, ptr nonnull %11) #23
  call void @llvm.lifetime.end.p0(i64 24, ptr nonnull %10) #23
  call void @llvm.lifetime.end.p0(i64 24, ptr nonnull %9) #23
  br label %.body

.body:                                            ; preds = %47, %27, %49
  %.pn.pn.pn.pn = phi { ptr, i32 } [ %50, %49 ], [ %48, %47 ], [ %28, %27 ]
  call void @_ZN2cv5utils5trace7details6RegionD2Ev(ptr noundef nonnull align 8 dereferenceable(12) %8) #23
  call void @llvm.lifetime.end.p0(i64 16, ptr nonnull %8) #23
  resume { ptr, i32 } %.pn.pn.pn.pn
}